target datalayout = "e-m:e-p270:32:32-p271:32:32-p272:64:64-i64:64-i128:128-f80:128-n8:16:32:64-S128"
target triple = "x86_64-pc-linux-gnu"

%struct.DdManager = type { %struct.DdNode, ptr, ptr, ptr, ptr, ptr, ptr, ptr, i32, i32, double, double, double, i32, i32, i32, i32, i32, i32, ptr, ptr, %struct.DdSubtable, i32, i32, i32, i32, i32, i32, i32, double, i32, i32, i32, ptr, i64, double, i32, ptr, ptr, ptr, ptr, ptr, ptr, ptr, i32, ptr, ptr, ptr, ptr, ptr, ptr, i32, i32, i32, double, i32, i32, i32, i32, double, double, i32, i32, i32, i32, i32, i32, i32, i32, i32, ptr, ptr, i32, i32, i32, i32, i32, i32, ptr, ptr, ptr, ptr, ptr, ptr, ptr, ptr, i32, i64, i64, i64, i32, i64, i64, double, double, double, double, double, double, i32, ptr, ptr, i64 }
%struct.DdNode = type { i32, i32, ptr, %union.anon, i64 }
%union.anon = type { %struct.DdChildren }
%struct.DdChildren = type { ptr, ptr }
%struct.DdSubtable = type { ptr, i32, i32, i32, i32, i32, i32, i32, i32, i32, i32, i32 }

; Function Attrs: nounwind uwtable
define void @cuddSetInteract(ptr noundef %0, i32 noundef %1, i32 noundef %2) #0 {
  %4 = alloca ptr, align 8
  %5 = alloca i32, align 4
  %6 = alloca i32, align 4
  %7 = alloca i32, align 4
  %8 = alloca i32, align 4
  %9 = alloca i32, align 4
  store ptr %0, ptr %4, align 8, !tbaa !3
  store i32 %1, ptr %5, align 4, !tbaa !8
  store i32 %2, ptr %6, align 4, !tbaa !8
  call void @llvm.lifetime.start.p0(i64 4, ptr %7) #4
  call void @llvm.lifetime.start.p0(i64 4, ptr %8) #4
  call void @llvm.lifetime.start.p0(i64 4, ptr %9) #4
  %10 = load ptr, ptr %4, align 8, !tbaa !3
  %11 = getelementptr inbounds nuw %struct.DdManager, ptr %10, i32 0, i32 15
  %12 = load i32, ptr %11, align 8, !tbaa !10
  %13 = shl i32 %12, 1
  %14 = load i32, ptr %5, align 4, !tbaa !8
  %15 = sub nsw i32 %13, %14
  %16 = sub nsw i32 %15, 3
  %17 = load i32, ptr %5, align 4, !tbaa !8
  %18 = mul nsw i32 %16, %17
  %19 = ashr i32 %18, 1
  %20 = load i32, ptr %6, align 4, !tbaa !8
  %21 = add nsw i32 %19, %20
  %22 = sub nsw i32 %21, 1
  store i32 %22, ptr %7, align 4, !tbaa !8
  %23 = load i32, ptr %7, align 4, !tbaa !8
  %24 = ashr i32 %23, 6
  store i32 %24, ptr %8, align 4, !tbaa !8
  %25 = load i32, ptr %7, align 4, !tbaa !8
  %26 = and i32 %25, 63
  store i32 %26, ptr %9, align 4, !tbaa !8
  %27 = load i32, ptr %9, align 4, !tbaa !8
  %28 = zext i32 %27 to i64
  %29 = shl i64 1, %28
  %30 = load ptr, ptr %4, align 8, !tbaa !3
  %31 = getelementptr inbounds nuw %struct.DdManager, ptr %30, i32 0, i32 45
  %32 = load ptr, ptr %31, align 8, !tbaa !27
  %33 = load i32, ptr %8, align 4, !tbaa !8
  %34 = sext i32 %33 to i64
  %35 = getelementptr inbounds i64, ptr %32, i64 %34
  %36 = load i64, ptr %35, align 8, !tbaa !28
  %37 = or i64 %36, %29
  store i64 %37, ptr %35, align 8, !tbaa !28
  call void @llvm.lifetime.end.p0(i64 4, ptr %9) #4
  call void @llvm.lifetime.end.p0(i64 4, ptr %8) #4
  call void @llvm.lifetime.end.p0(i64 4, ptr %7) #4
  ret void
}