; Function Attrs: mustprogress nofree norecurse nosync nounwind willreturn memory(readwrite, inaccessiblemem: none) uwtable
define void @cuddSetInteract(ptr noundef readonly captures(none) %0, i32 noundef %1, i32 noundef %2) local_unnamed_addr #0 {
  %4 = getelementptr inbounds nuw i8, ptr %0, i64 136
  %5 = load i32, ptr %4, align 8, !tbaa !3
  %6 = shl i32 %5, 1
  %reass.sub = sub i32 %6, %1
  %7 = add i32 %reass.sub, -3
  %8 = mul nsw i32 %7, %1
  %9 = ashr i32 %8, 1
  %10 = add i32 %2, -1
  %11 = add i32 %10, %9
  %12 = ashr i32 %11, 6
  %13 = and i32 %11, 63
  %14 = zext nneg i32 %13 to i64
  %15 = shl nuw i64 1, %14
  %16 = getelementptr inbounds nuw i8, ptr %0, i64 376
  %17 = load ptr, ptr %16, align 8, !tbaa !24
  %18 = sext i32 %12 to i64
  %19 = getelementptr inbounds i64, ptr %17, i64 %18
  %20 = load i64, ptr %19, align 8, !tbaa !25
  %21 = or i64 %15, %20
  store i64 %21, ptr %19, align 8, !tbaa !25
  ret void
}